(lp0
(lp1
S'>'
p2
aS'>'
p3
aS'<'
p4
aS'>'
p5
aS'>'
p6
aS'>'
p7
aS'>'
p8
aS'>'
p9
aS'v'
p10
aS'<'
p11
aS'<'
p12
aS'<'
p13
aS'>'
p14
aS'^'
p15
aS'v'
p16
aS'>'
p17
aS'>'
p18
aS'^'
p19
aS'^'
p20
aS'>'
p21
aa(lp22
S'^'
p23
aS'<'
p24
aS'^'
p25
aS'<'
p26
aS'None'
p27
aS'<'
p28
aS'v'
p29
aS'^'
p30
aS'<'
p31
aS'v'
p32
aS'^'
p33
aS'^'
p34
aS'>'
p35
aS'^'
p36
aS'<'
p37
aS'>'
p38
aS'>'
p39
aS'>'
p40
aS'<'
p41
aS'^'
p42
aa(lp43
S'^'
p44
aS'<'
p45
aS'<'
p46
aS'<'
p47
aS'>'
p48
aS'None'
p49
aS'<'
p50
aS'<'
p51
aS'v'
p52
aS'^'
p53
aS'^'
p54
aS'v'
p55
aS'v'
p56
aS'<'
p57
aS'<'
p58
aS'None'
p59
aS'<'
p60
aS'^'
p61
aS'v'
p62
aS'<'
p63
aa(lp64
S'^'
p65
aS'^'
p66
aS'^'
p67
aS'^'
p68
aS'^'
p69
aS'^'
p70
aS'None'
p71
aS'^'
p72
aS'>'
p73
aS'^'
p74
aS'>'
p75
aS'<'
p76
aS'^'
p77
aS'>'
p78
aS'v'
p79
aS'None'
p80
aS'<'
p81
aS'v'
p82
aS'^'
p83
aS'>'
p84
aa(lp85
S'>'
p86
aS'^'
p87
aS'^'
p88
aS'^'
p89
aS'>'
p90
aS'>'
p91
aS'>'
p92
aS'None'
p93
aS'<'
p94
aS'v'
p95
aS'<'
p96
aS'<'
p97
aS'v'
p98
aS'v'
p99
aS'>'
p100
aS'None'
p101
aS'v'
p102
aS'v'
p103
aS'v'
p104
aS'>'
p105
aa(lp106
S'>'
p107
aS'^'
p108
aS'<'
p109
aS'>'
p110
aS'>'
p111
aS'<'
p112
aS'<'
p113
aS'^'
p114
aS'None'
p115
aS'<'
p116
aS'v'
p117
aS'<'
p118
aS'v'
p119
aS'None'
p120
aS'None'
p121
aS'None'
p122
aS'None'
p123
aS'None'
p124
aS'None'
p125
aS'^'
p126
aa(lp127
S'>'
p128
aS'^'
p129
aS'>'
p130
aS'>'
p131
aS'^'
p132
aS'<'
p133
aS'v'
p134
aS'>'
p135
aS'<'
p136
aS'None'
p137
aS'>'
p138
aS'v'
p139
aS'v'
p140
aS'>'
p141
aS'^'
p142
aS'^'
p143
aS'<'
p144
aS'v'
p145
aS'v'
p146
aS'^'
p147
aa(lp148
S'>'
p149
aS'<'
p150
aS'>'
p151
aS'<'
p152
aS'<'
p153
aS'^'
p154
aS'>'
p155
aS'^'
p156
aS'^'
p157
aS'None'
p158
aS'>'
p159
aS'None'
p160
aS'v'
p161
aS'<'
p162
aS'v'
p163
aS'>'
p164
aS'v'
p165
aS'^'
p166
aS'<'
p167
aS'v'
p168
aa(lp169
S'^'
p170
aS'<'
p171
aS'>'
p172
aS'^'
p173
aS'v'
p174
aS'v'
p175
aS'v'
p176
aS'v'
p177
aS'^'
p178
aS'^'
p179
aS'None'
p180
aS'v'
p181
aS'v'
p182
aS'None'
p183
aS'>'
p184
aS'>'
p185
aS'<'
p186
aS'>'
p187
aS'^'
p188
aS'<'
p189
aa(lp190
S'^'
p191
aS'None'
p192
aS'v'
p193
aS'<'
p194
aS'>'
p195
aS'v'
p196
aS'<'
p197
aS'v'
p198
aS'^'
p199
aS'>'
p200
aS'None'
p201
aS'<'
p202
aS'<'
p203
aS'v'
p204
aS'None'
p205
aS'>'
p206
aS'>'
p207
aS'<'
p208
aS'>'
p209
aS'<'
p210
aa(lp211
S'^'
p212
aS'<'
p213
aS'<'
p214
aS'<'
p215
aS'<'
p216
aS'>'
p217
aS'v'
p218
aS'<'
p219
aS'<'
p220
aS'None'
p221
aS'^'
p222
aS'<'
p223
aS'>'
p224
aS'v'
p225
aS'>'
p226
aS'None'
p227
aS'^'
p228
aS'^'
p229
aS'>'
p230
aS'^'
p231
aa(lp232
S'^'
p233
aS'^'
p234
aS'<'
p235
aS'v'
p236
aS'v'
p237
aS'None'
p238
aS'>'
p239
aS'<'
p240
aS'None'
p241
aS'^'
p242
aS'>'
p243
aS'^'
p244
aS'>'
p245
aS'<'
p246
aS'^'
p247
aS'>'
p248
aS'None'
p249
aS'<'
p250
aS'>'
p251
aS'<'
p252
aa(lp253
S'>'
p254
aS'^'
p255
aS'^'
p256
aS'<'
p257
aS'v'
p258
aS'>'
p259
aS'<'
p260
aS'None'
p261
aS'^'
p262
aS'<'
p263
aS'^'
p264
aS'>'
p265
aS'^'
p266
aS'v'
p267
aS'v'
p268
aS'>'
p269
aS'v'
p270
aS'None'
p271
aS'None'
p272
aS'>'
p273
aa(lp274
S'^'
p275
aS'<'
p276
aS'^'
p277
aS'^'
p278
aS'^'
p279
aS'<'
p280
aS'<'
p281
aS'None'
p282
aS'<'
p283
aS'<'
p284
aS'v'
p285
aS'>'
p286
aS'None'
p287
aS'>'
p288
aS'v'
p289
aS'>'
p290
aS'<'
p291
aS'v'
p292
aS'>'
p293
aS'<'
p294
aa(lp295
S'^'
p296
aS'^'
p297
aS'>'
p298
aS'<'
p299
aS'^'
p300
aS'<'
p301
aS'^'
p302
aS'>'
p303
aS'v'
p304
aS'^'
p305
aS'>'
p306
aS'None'
p307
aS'v'
p308
aS'None'
p309
aS'<'
p310
aS'None'
p311
aS'<'
p312
aS'v'
p313
aS'<'
p314
aS'<'
p315
aa(lp316
S'^'
p317
aS'v'
p318
aS'<'
p319
aS'<'
p320
aS'v'
p321
aS'v'
p322
aS'<'
p323
aS'v'
p324
aS'v'
p325
aS'>'
p326
aS'None'
p327
aS'<'
p328
aS'<'
p329
aS'>'
p330
aS'None'
p331
aS'<'
p332
aS'<'
p333
aS'^'
p334
aS'^'
p335
aS'<'
p336
aa(lp337
S'^'
p338
aS'^'
p339
aS'>'
p340
aS'^'
p341
aS'<'
p342
aS'v'
p343
aS'>'
p344
aS'>'
p345
aS'v'
p346
aS'None'
p347
aS'>'
p348
aS'>'
p349
aS'>'
p350
aS'<'
p351
aS'<'
p352
aS'>'
p353
aS'v'
p354
aS'<'
p355
aS'>'
p356
aS'<'
p357
aa(lp358
S'v'
p359
aS'>'
p360
aS'>'
p361
aS'v'
p362
aS'v'
p363
aS'<'
p364
aS'>'
p365
aS'v'
p366
aS'v'
p367
aS'^'
p368
aS'None'
p369
aS'v'
p370
aS'<'
p371
aS'^'
p372
aS'>'
p373
aS'^'
p374
aS'^'
p375
aS'v'
p376
aS'<'
p377
aS'v'
p378
aa(lp379
S'^'
p380
aS'>'
p381
aS'^'
p382
aS'v'
p383
aS'^'
p384
aS'^'
p385
aS'v'
p386
aS'>'
p387
aS'>'
p388
aS'v'
p389
aS'v'
p390
aS'None'
p391
aS'None'
p392
aS'>'
p393
aS'None'
p394
aS'None'
p395
aS'None'
p396
aS'None'
p397
aS'None'
p398
aS'None'
p399
aa(lp400
S'^'
p401
aS'v'
p402
aS'^'
p403
aS'>'
p404
aS'^'
p405
aS'<'
p406
aS'>'
p407
aS'>'
p408
aS'>'
p409
aS'v'
p410
aS'>'
p411
aS'>'
p412
aS'v'
p413
aS'>'
p414
aS'>'
p415
aS'>'
p416
aS'v'
p417
aS'v'
p418
aS'>'
p419
aS'v'
p420
aa.