(lp0
(lp1
S'<'
p2
aS'v'
p3
aS'v'
p4
aS'>'
p5
aS'>'
p6
aS'^'
p7
aS'<'
p8
aS'>'
p9
aS'^'
p10
aS'>'
p11
aS'>'
p12
aS'v'
p13
aS'>'
p14
aS'v'
p15
aS'^'
p16
aS'v'
p17
aS'<'
p18
aS'<'
p19
aS'>'
p20
aS'<'
p21
aa(lp22
S'^'
p23
aS'<'
p24
aS'<'
p25
aS'<'
p26
aS'None'
p27
aS'>'
p28
aS'v'
p29
aS'>'
p30
aS'^'
p31
aS'v'
p32
aS'^'
p33
aS'v'
p34
aS'<'
p35
aS'<'
p36
aS'v'
p37
aS'^'
p38
aS'^'
p39
aS'<'
p40
aS'>'
p41
aS'>'
p42
aa(lp43
S'^'
p44
aS'<'
p45
aS'^'
p46
aS'>'
p47
aS'v'
p48
aS'None'
p49
aS'<'
p50
aS'>'
p51
aS'v'
p52
aS'^'
p53
aS'<'
p54
aS'^'
p55
aS'>'
p56
aS'^'
p57
aS'>'
p58
aS'None'
p59
aS'<'
p60
aS'<'
p61
aS'<'
p62
aS'v'
p63
aa(lp64
S'>'
p65
aS'<'
p66
aS'^'
p67
aS'>'
p68
aS'^'
p69
aS'v'
p70
aS'None'
p71
aS'<'
p72
aS'>'
p73
aS'>'
p74
aS'<'
p75
aS'>'
p76
aS'^'
p77
aS'>'
p78
aS'v'
p79
aS'None'
p80
aS'<'
p81
aS'>'
p82
aS'<'
p83
aS'<'
p84
aa(lp85
S'>'
p86
aS'>'
p87
aS'^'
p88
aS'>'
p89
aS'^'
p90
aS'^'
p91
aS'>'
p92
aS'None'
p93
aS'<'
p94
aS'v'
p95
aS'v'
p96
aS'<'
p97
aS'v'
p98
aS'^'
p99
aS'v'
p100
aS'None'
p101
aS'<'
p102
aS'^'
p103
aS'>'
p104
aS'>'
p105
aa(lp106
S'^'
p107
aS'v'
p108
aS'<'
p109
aS'<'
p110
aS'v'
p111
aS'^'
p112
aS'^'
p113
aS'v'
p114
aS'None'
p115
aS'>'
p116
aS'^'
p117
aS'<'
p118
aS'v'
p119
aS'None'
p120
aS'None'
p121
aS'None'
p122
aS'None'
p123
aS'None'
p124
aS'None'
p125
aS'>'
p126
aa(lp127
S'v'
p128
aS'v'
p129
aS'>'
p130
aS'>'
p131
aS'<'
p132
aS'^'
p133
aS'<'
p134
aS'^'
p135
aS'v'
p136
aS'None'
p137
aS'^'
p138
aS'^'
p139
aS'v'
p140
aS'>'
p141
aS'^'
p142
aS'v'
p143
aS'>'
p144
aS'>'
p145
aS'^'
p146
aS'>'
p147
aa(lp148
S'>'
p149
aS'v'
p150
aS'<'
p151
aS'<'
p152
aS'^'
p153
aS'>'
p154
aS'>'
p155
aS'>'
p156
aS'^'
p157
aS'None'
p158
aS'<'
p159
aS'None'
p160
aS'v'
p161
aS'>'
p162
aS'>'
p163
aS'<'
p164
aS'<'
p165
aS'<'
p166
aS'<'
p167
aS'<'
p168
aa(lp169
S'<'
p170
aS'<'
p171
aS'<'
p172
aS'<'
p173
aS'<'
p174
aS'v'
p175
aS'^'
p176
aS'^'
p177
aS'<'
p178
aS'v'
p179
aS'None'
p180
aS'^'
p181
aS'^'
p182
aS'None'
p183
aS'v'
p184
aS'>'
p185
aS'>'
p186
aS'>'
p187
aS'v'
p188
aS'^'
p189
aa(lp190
S'^'
p191
aS'None'
p192
aS'^'
p193
aS'^'
p194
aS'>'
p195
aS'v'
p196
aS'<'
p197
aS'^'
p198
aS'^'
p199
aS'v'
p200
aS'None'
p201
aS'<'
p202
aS'<'
p203
aS'>'
p204
aS'None'
p205
aS'<'
p206
aS'>'
p207
aS'v'
p208
aS'^'
p209
aS'v'
p210
aa(lp211
S'^'
p212
aS'<'
p213
aS'<'
p214
aS'<'
p215
aS'>'
p216
aS'>'
p217
aS'v'
p218
aS'v'
p219
aS'<'
p220
aS'None'
p221
aS'v'
p222
aS'^'
p223
aS'<'
p224
aS'>'
p225
aS'^'
p226
aS'None'
p227
aS'<'
p228
aS'<'
p229
aS'>'
p230
aS'<'
p231
aa(lp232
S'^'
p233
aS'^'
p234
aS'v'
p235
aS'<'
p236
aS'v'
p237
aS'None'
p238
aS'<'
p239
aS'v'
p240
aS'None'
p241
aS'^'
p242
aS'^'
p243
aS'v'
p244
aS'>'
p245
aS'v'
p246
aS'^'
p247
aS'>'
p248
aS'None'
p249
aS'v'
p250
aS'^'
p251
aS'v'
p252
aa(lp253
S'^'
p254
aS'^'
p255
aS'<'
p256
aS'>'
p257
aS'<'
p258
aS'v'
p259
aS'>'
p260
aS'None'
p261
aS'v'
p262
aS'>'
p263
aS'<'
p264
aS'<'
p265
aS'<'
p266
aS'v'
p267
aS'>'
p268
aS'^'
p269
aS'v'
p270
aS'None'
p271
aS'None'
p272
aS'>'
p273
aa(lp274
S'>'
p275
aS'<'
p276
aS'<'
p277
aS'>'
p278
aS'>'
p279
aS'^'
p280
aS'<'
p281
aS'None'
p282
aS'v'
p283
aS'<'
p284
aS'v'
p285
aS'<'
p286
aS'None'
p287
aS'<'
p288
aS'<'
p289
aS'^'
p290
aS'>'
p291
aS'<'
p292
aS'^'
p293
aS'^'
p294
aa(lp295
S'^'
p296
aS'<'
p297
aS'^'
p298
aS'>'
p299
aS'v'
p300
aS'<'
p301
aS'<'
p302
aS'>'
p303
aS'^'
p304
aS'>'
p305
aS'>'
p306
aS'None'
p307
aS'^'
p308
aS'None'
p309
aS'^'
p310
aS'None'
p311
aS'v'
p312
aS'v'
p313
aS'<'
p314
aS'<'
p315
aa(lp316
S'>'
p317
aS'<'
p318
aS'v'
p319
aS'v'
p320
aS'<'
p321
aS'^'
p322
aS'<'
p323
aS'>'
p324
aS'>'
p325
aS'>'
p326
aS'None'
p327
aS'v'
p328
aS'<'
p329
aS'v'
p330
aS'None'
p331
aS'<'
p332
aS'^'
p333
aS'v'
p334
aS'<'
p335
aS'^'
p336
aa(lp337
S'>'
p338
aS'v'
p339
aS'v'
p340
aS'<'
p341
aS'<'
p342
aS'^'
p343
aS'>'
p344
aS'^'
p345
aS'^'
p346
aS'None'
p347
aS'^'
p348
aS'>'
p349
aS'>'
p350
aS'>'
p351
aS'>'
p352
aS'v'
p353
aS'>'
p354
aS'v'
p355
aS'^'
p356
aS'^'
p357
aa(lp358
S'>'
p359
aS'^'
p360
aS'v'
p361
aS'v'
p362
aS'<'
p363
aS'^'
p364
aS'^'
p365
aS'>'
p366
aS'v'
p367
aS'>'
p368
aS'None'
p369
aS'^'
p370
aS'v'
p371
aS'^'
p372
aS'^'
p373
aS'v'
p374
aS'>'
p375
aS'>'
p376
aS'^'
p377
aS'v'
p378
aa(lp379
S'<'
p380
aS'<'
p381
aS'v'
p382
aS'<'
p383
aS'<'
p384
aS'<'
p385
aS'<'
p386
aS'>'
p387
aS'v'
p388
aS'^'
p389
aS'>'
p390
aS'None'
p391
aS'None'
p392
aS'>'
p393
aS'None'
p394
aS'None'
p395
aS'None'
p396
aS'None'
p397
aS'None'
p398
aS'None'
p399
aa(lp400
S'^'
p401
aS'<'
p402
aS'^'
p403
aS'^'
p404
aS'^'
p405
aS'v'
p406
aS'>'
p407
aS'>'
p408
aS'v'
p409
aS'>'
p410
aS'v'
p411
aS'>'
p412
aS'v'
p413
aS'<'
p414
aS'>'
p415
aS'v'
p416
aS'>'
p417
aS'^'
p418
aS'<'
p419
aS'>'
p420
aa.