(lp0
(lp1
S'<'
p2
aS'^'
p3
aS'<'
p4
aS'^'
p5
aS'>'
p6
aS'v'
p7
aS'>'
p8
aS'<'
p9
aS'<'
p10
aS'^'
p11
aS'<'
p12
aS'<'
p13
aS'>'
p14
aS'v'
p15
aS'<'
p16
aS'^'
p17
aS'v'
p18
aS'>'
p19
aS'v'
p20
aS'<'
p21
aa(lp22
S'>'
p23
aS'<'
p24
aS'<'
p25
aS'<'
p26
aS'None'
p27
aS'<'
p28
aS'<'
p29
aS'v'
p30
aS'v'
p31
aS'v'
p32
aS'^'
p33
aS'^'
p34
aS'^'
p35
aS'^'
p36
aS'<'
p37
aS'<'
p38
aS'>'
p39
aS'^'
p40
aS'>'
p41
aS'v'
p42
aa(lp43
S'v'
p44
aS'>'
p45
aS'v'
p46
aS'>'
p47
aS'v'
p48
aS'None'
p49
aS'v'
p50
aS'v'
p51
aS'v'
p52
aS'<'
p53
aS'v'
p54
aS'^'
p55
aS'v'
p56
aS'<'
p57
aS'<'
p58
aS'None'
p59
aS'>'
p60
aS'<'
p61
aS'^'
p62
aS'<'
p63
aa(lp64
S'^'
p65
aS'v'
p66
aS'<'
p67
aS'>'
p68
aS'>'
p69
aS'^'
p70
aS'None'
p71
aS'v'
p72
aS'v'
p73
aS'v'
p74
aS'v'
p75
aS'>'
p76
aS'>'
p77
aS'>'
p78
aS'<'
p79
aS'None'
p80
aS'<'
p81
aS'<'
p82
aS'>'
p83
aS'v'
p84
aa(lp85
S'<'
p86
aS'<'
p87
aS'<'
p88
aS'<'
p89
aS'>'
p90
aS'^'
p91
aS'>'
p92
aS'None'
p93
aS'>'
p94
aS'<'
p95
aS'<'
p96
aS'^'
p97
aS'^'
p98
aS'v'
p99
aS'^'
p100
aS'None'
p101
aS'v'
p102
aS'<'
p103
aS'>'
p104
aS'^'
p105
aa(lp106
S'<'
p107
aS'^'
p108
aS'v'
p109
aS'>'
p110
aS'v'
p111
aS'>'
p112
aS'<'
p113
aS'>'
p114
aS'None'
p115
aS'^'
p116
aS'^'
p117
aS'>'
p118
aS'<'
p119
aS'None'
p120
aS'None'
p121
aS'None'
p122
aS'None'
p123
aS'None'
p124
aS'None'
p125
aS'>'
p126
aa(lp127
S'^'
p128
aS'v'
p129
aS'<'
p130
aS'v'
p131
aS'v'
p132
aS'<'
p133
aS'>'
p134
aS'v'
p135
aS'^'
p136
aS'None'
p137
aS'<'
p138
aS'v'
p139
aS'<'
p140
aS'<'
p141
aS'v'
p142
aS'<'
p143
aS'<'
p144
aS'^'
p145
aS'>'
p146
aS'^'
p147
aa(lp148
S'v'
p149
aS'>'
p150
aS'>'
p151
aS'^'
p152
aS'<'
p153
aS'>'
p154
aS'^'
p155
aS'^'
p156
aS'>'
p157
aS'None'
p158
aS'v'
p159
aS'None'
p160
aS'<'
p161
aS'v'
p162
aS'^'
p163
aS'v'
p164
aS'^'
p165
aS'<'
p166
aS'^'
p167
aS'>'
p168
aa(lp169
S'^'
p170
aS'^'
p171
aS'<'
p172
aS'<'
p173
aS'^'
p174
aS'v'
p175
aS'^'
p176
aS'>'
p177
aS'>'
p178
aS'v'
p179
aS'None'
p180
aS'<'
p181
aS'v'
p182
aS'None'
p183
aS'^'
p184
aS'>'
p185
aS'^'
p186
aS'v'
p187
aS'v'
p188
aS'<'
p189
aa(lp190
S'>'
p191
aS'None'
p192
aS'^'
p193
aS'>'
p194
aS'>'
p195
aS'>'
p196
aS'<'
p197
aS'v'
p198
aS'>'
p199
aS'^'
p200
aS'None'
p201
aS'v'
p202
aS'v'
p203
aS'>'
p204
aS'None'
p205
aS'^'
p206
aS'^'
p207
aS'<'
p208
aS'>'
p209
aS'<'
p210
aa(lp211
S'^'
p212
aS'^'
p213
aS'<'
p214
aS'<'
p215
aS'<'
p216
aS'>'
p217
aS'^'
p218
aS'<'
p219
aS'^'
p220
aS'None'
p221
aS'v'
p222
aS'v'
p223
aS'v'
p224
aS'^'
p225
aS'^'
p226
aS'None'
p227
aS'v'
p228
aS'>'
p229
aS'^'
p230
aS'<'
p231
aa(lp232
S'v'
p233
aS'<'
p234
aS'^'
p235
aS'<'
p236
aS'v'
p237
aS'None'
p238
aS'>'
p239
aS'v'
p240
aS'None'
p241
aS'^'
p242
aS'>'
p243
aS'>'
p244
aS'<'
p245
aS'v'
p246
aS'^'
p247
aS'>'
p248
aS'None'
p249
aS'^'
p250
aS'>'
p251
aS'>'
p252
aa(lp253
S'v'
p254
aS'>'
p255
aS'^'
p256
aS'>'
p257
aS'<'
p258
aS'^'
p259
aS'>'
p260
aS'None'
p261
aS'<'
p262
aS'<'
p263
aS'^'
p264
aS'<'
p265
aS'>'
p266
aS'v'
p267
aS'>'
p268
aS'>'
p269
aS'>'
p270
aS'None'
p271
aS'None'
p272
aS'<'
p273
aa(lp274
S'^'
p275
aS'^'
p276
aS'^'
p277
aS'>'
p278
aS'v'
p279
aS'v'
p280
aS'^'
p281
aS'None'
p282
aS'^'
p283
aS'^'
p284
aS'>'
p285
aS'^'
p286
aS'None'
p287
aS'<'
p288
aS'^'
p289
aS'v'
p290
aS'<'
p291
aS'^'
p292
aS'^'
p293
aS'>'
p294
aa(lp295
S'v'
p296
aS'^'
p297
aS'^'
p298
aS'>'
p299
aS'<'
p300
aS'^'
p301
aS'<'
p302
aS'>'
p303
aS'>'
p304
aS'v'
p305
aS'>'
p306
aS'None'
p307
aS'^'
p308
aS'None'
p309
aS'v'
p310
aS'None'
p311
aS'v'
p312
aS'>'
p313
aS'v'
p314
aS'^'
p315
aa(lp316
S'>'
p317
aS'^'
p318
aS'<'
p319
aS'^'
p320
aS'<'
p321
aS'<'
p322
aS'v'
p323
aS'>'
p324
aS'v'
p325
aS'^'
p326
aS'None'
p327
aS'>'
p328
aS'<'
p329
aS'v'
p330
aS'None'
p331
aS'v'
p332
aS'<'
p333
aS'v'
p334
aS'>'
p335
aS'v'
p336
aa(lp337
S'<'
p338
aS'<'
p339
aS'<'
p340
aS'v'
p341
aS'^'
p342
aS'>'
p343
aS'<'
p344
aS'>'
p345
aS'>'
p346
aS'None'
p347
aS'<'
p348
aS'v'
p349
aS'>'
p350
aS'^'
p351
aS'>'
p352
aS'<'
p353
aS'<'
p354
aS'<'
p355
aS'v'
p356
aS'v'
p357
aa(lp358
S'^'
p359
aS'v'
p360
aS'>'
p361
aS'<'
p362
aS'v'
p363
aS'^'
p364
aS'^'
p365
aS'>'
p366
aS'>'
p367
aS'^'
p368
aS'None'
p369
aS'v'
p370
aS'v'
p371
aS'^'
p372
aS'v'
p373
aS'^'
p374
aS'>'
p375
aS'<'
p376
aS'>'
p377
aS'^'
p378
aa(lp379
S'v'
p380
aS'^'
p381
aS'<'
p382
aS'>'
p383
aS'>'
p384
aS'^'
p385
aS'<'
p386
aS'^'
p387
aS'^'
p388
aS'>'
p389
aS'>'
p390
aS'None'
p391
aS'None'
p392
aS'>'
p393
aS'None'
p394
aS'None'
p395
aS'None'
p396
aS'None'
p397
aS'None'
p398
aS'None'
p399
aa(lp400
S'^'
p401
aS'<'
p402
aS'v'
p403
aS'>'
p404
aS'^'
p405
aS'^'
p406
aS'<'
p407
aS'>'
p408
aS'>'
p409
aS'v'
p410
aS'<'
p411
aS'v'
p412
aS'>'
p413
aS'>'
p414
aS'^'
p415
aS'^'
p416
aS'<'
p417
aS'^'
p418
aS'<'
p419
aS'v'
p420
aa.