(lp0
(lp1
S'v'
p2
aS'^'
p3
aS'<'
p4
aS'>'
p5
aS'>'
p6
aS'>'
p7
aS'v'
p8
aS'<'
p9
aS'^'
p10
aS'^'
p11
aS'<'
p12
aS'>'
p13
aS'<'
p14
aS'v'
p15
aS'v'
p16
aS'^'
p17
aS'<'
p18
aS'v'
p19
aS'^'
p20
aS'>'
p21
aa(lp22
S'^'
p23
aS'v'
p24
aS'v'
p25
aS'v'
p26
aS'None'
p27
aS'>'
p28
aS'>'
p29
aS'<'
p30
aS'^'
p31
aS'v'
p32
aS'v'
p33
aS'>'
p34
aS'^'
p35
aS'^'
p36
aS'<'
p37
aS'<'
p38
aS'^'
p39
aS'v'
p40
aS'^'
p41
aS'<'
p42
aa(lp43
S'^'
p44
aS'^'
p45
aS'<'
p46
aS'>'
p47
aS'>'
p48
aS'None'
p49
aS'v'
p50
aS'<'
p51
aS'<'
p52
aS'v'
p53
aS'^'
p54
aS'v'
p55
aS'>'
p56
aS'<'
p57
aS'>'
p58
aS'None'
p59
aS'^'
p60
aS'v'
p61
aS'^'
p62
aS'>'
p63
aa(lp64
S'^'
p65
aS'<'
p66
aS'v'
p67
aS'<'
p68
aS'^'
p69
aS'^'
p70
aS'None'
p71
aS'^'
p72
aS'<'
p73
aS'^'
p74
aS'>'
p75
aS'^'
p76
aS'>'
p77
aS'>'
p78
aS'^'
p79
aS'None'
p80
aS'^'
p81
aS'v'
p82
aS'<'
p83
aS'>'
p84
aa(lp85
S'>'
p86
aS'>'
p87
aS'v'
p88
aS'<'
p89
aS'v'
p90
aS'^'
p91
aS'v'
p92
aS'None'
p93
aS'v'
p94
aS'v'
p95
aS'^'
p96
aS'>'
p97
aS'>'
p98
aS'>'
p99
aS'^'
p100
aS'None'
p101
aS'^'
p102
aS'>'
p103
aS'>'
p104
aS'^'
p105
aa(lp106
S'^'
p107
aS'^'
p108
aS'<'
p109
aS'v'
p110
aS'^'
p111
aS'v'
p112
aS'>'
p113
aS'<'
p114
aS'None'
p115
aS'v'
p116
aS'>'
p117
aS'^'
p118
aS'v'
p119
aS'None'
p120
aS'None'
p121
aS'None'
p122
aS'None'
p123
aS'None'
p124
aS'None'
p125
aS'^'
p126
aa(lp127
S'>'
p128
aS'>'
p129
aS'<'
p130
aS'v'
p131
aS'^'
p132
aS'^'
p133
aS'v'
p134
aS'^'
p135
aS'>'
p136
aS'None'
p137
aS'<'
p138
aS'v'
p139
aS'^'
p140
aS'>'
p141
aS'^'
p142
aS'<'
p143
aS'^'
p144
aS'<'
p145
aS'<'
p146
aS'^'
p147
aa(lp148
S'v'
p149
aS'^'
p150
aS'^'
p151
aS'^'
p152
aS'<'
p153
aS'>'
p154
aS'^'
p155
aS'v'
p156
aS'^'
p157
aS'None'
p158
aS'^'
p159
aS'None'
p160
aS'v'
p161
aS'v'
p162
aS'v'
p163
aS'>'
p164
aS'<'
p165
aS'^'
p166
aS'v'
p167
aS'>'
p168
aa(lp169
S'<'
p170
aS'<'
p171
aS'^'
p172
aS'<'
p173
aS'v'
p174
aS'v'
p175
aS'<'
p176
aS'^'
p177
aS'>'
p178
aS'>'
p179
aS'None'
p180
aS'<'
p181
aS'>'
p182
aS'None'
p183
aS'^'
p184
aS'v'
p185
aS'<'
p186
aS'>'
p187
aS'>'
p188
aS'^'
p189
aa(lp190
S'v'
p191
aS'None'
p192
aS'^'
p193
aS'v'
p194
aS'>'
p195
aS'v'
p196
aS'<'
p197
aS'<'
p198
aS'>'
p199
aS'^'
p200
aS'None'
p201
aS'v'
p202
aS'>'
p203
aS'<'
p204
aS'None'
p205
aS'^'
p206
aS'>'
p207
aS'v'
p208
aS'<'
p209
aS'v'
p210
aa(lp211
S'v'
p212
aS'v'
p213
aS'>'
p214
aS'v'
p215
aS'<'
p216
aS'^'
p217
aS'v'
p218
aS'v'
p219
aS'^'
p220
aS'None'
p221
aS'^'
p222
aS'>'
p223
aS'^'
p224
aS'^'
p225
aS'v'
p226
aS'None'
p227
aS'>'
p228
aS'^'
p229
aS'^'
p230
aS'v'
p231
aa(lp232
S'v'
p233
aS'<'
p234
aS'<'
p235
aS'<'
p236
aS'v'
p237
aS'None'
p238
aS'v'
p239
aS'>'
p240
aS'None'
p241
aS'^'
p242
aS'>'
p243
aS'>'
p244
aS'<'
p245
aS'<'
p246
aS'^'
p247
aS'>'
p248
aS'None'
p249
aS'^'
p250
aS'>'
p251
aS'^'
p252
aa(lp253
S'^'
p254
aS'v'
p255
aS'<'
p256
aS'<'
p257
aS'<'
p258
aS'^'
p259
aS'>'
p260
aS'None'
p261
aS'v'
p262
aS'^'
p263
aS'<'
p264
aS'<'
p265
aS'>'
p266
aS'^'
p267
aS'^'
p268
aS'>'
p269
aS'<'
p270
aS'None'
p271
aS'None'
p272
aS'<'
p273
aa(lp274
S'>'
p275
aS'v'
p276
aS'v'
p277
aS'v'
p278
aS'<'
p279
aS'<'
p280
aS'^'
p281
aS'None'
p282
aS'v'
p283
aS'<'
p284
aS'v'
p285
aS'<'
p286
aS'None'
p287
aS'v'
p288
aS'v'
p289
aS'>'
p290
aS'v'
p291
aS'<'
p292
aS'^'
p293
aS'^'
p294
aa(lp295
S'v'
p296
aS'<'
p297
aS'<'
p298
aS'v'
p299
aS'v'
p300
aS'v'
p301
aS'^'
p302
aS'>'
p303
aS'v'
p304
aS'v'
p305
aS'>'
p306
aS'None'
p307
aS'>'
p308
aS'None'
p309
aS'v'
p310
aS'None'
p311
aS'v'
p312
aS'>'
p313
aS'v'
p314
aS'^'
p315
aa(lp316
S'v'
p317
aS'<'
p318
aS'<'
p319
aS'<'
p320
aS'<'
p321
aS'<'
p322
aS'>'
p323
aS'<'
p324
aS'>'
p325
aS'^'
p326
aS'None'
p327
aS'>'
p328
aS'^'
p329
aS'<'
p330
aS'None'
p331
aS'v'
p332
aS'v'
p333
aS'>'
p334
aS'<'
p335
aS'<'
p336
aa(lp337
S'^'
p338
aS'<'
p339
aS'<'
p340
aS'^'
p341
aS'<'
p342
aS'^'
p343
aS'<'
p344
aS'>'
p345
aS'^'
p346
aS'None'
p347
aS'v'
p348
aS'^'
p349
aS'v'
p350
aS'v'
p351
aS'^'
p352
aS'^'
p353
aS'<'
p354
aS'^'
p355
aS'^'
p356
aS'v'
p357
aa(lp358
S'<'
p359
aS'<'
p360
aS'<'
p361
aS'<'
p362
aS'^'
p363
aS'v'
p364
aS'<'
p365
aS'>'
p366
aS'v'
p367
aS'v'
p368
aS'None'
p369
aS'<'
p370
aS'^'
p371
aS'^'
p372
aS'<'
p373
aS'<'
p374
aS'<'
p375
aS'<'
p376
aS'<'
p377
aS'>'
p378
aa(lp379
S'<'
p380
aS'v'
p381
aS'v'
p382
aS'^'
p383
aS'v'
p384
aS'v'
p385
aS'<'
p386
aS'v'
p387
aS'>'
p388
aS'>'
p389
aS'v'
p390
aS'None'
p391
aS'None'
p392
aS'v'
p393
aS'None'
p394
aS'None'
p395
aS'None'
p396
aS'None'
p397
aS'None'
p398
aS'None'
p399
aa(lp400
S'^'
p401
aS'^'
p402
aS'<'
p403
aS'<'
p404
aS'<'
p405
aS'v'
p406
aS'<'
p407
aS'v'
p408
aS'v'
p409
aS'>'
p410
aS'v'
p411
aS'>'
p412
aS'v'
p413
aS'v'
p414
aS'<'
p415
aS'>'
p416
aS'v'
p417
aS'>'
p418
aS'>'
p419
aS'^'
p420
aa.