(lp0
(lp1
S'<'
p2
aS'>'
p3
aS'v'
p4
aS'<'
p5
aS'<'
p6
aS'>'
p7
aS'^'
p8
aS'<'
p9
aS'<'
p10
aS'<'
p11
aS'v'
p12
aS'<'
p13
aS'>'
p14
aS'>'
p15
aS'>'
p16
aS'^'
p17
aS'<'
p18
aS'>'
p19
aS'>'
p20
aS'>'
p21
aa(lp22
S'v'
p23
aS'>'
p24
aS'>'
p25
aS'<'
p26
aS'None'
p27
aS'v'
p28
aS'v'
p29
aS'<'
p30
aS'v'
p31
aS'v'
p32
aS'^'
p33
aS'v'
p34
aS'v'
p35
aS'>'
p36
aS'<'
p37
aS'v'
p38
aS'^'
p39
aS'v'
p40
aS'>'
p41
aS'v'
p42
aa(lp43
S'v'
p44
aS'<'
p45
aS'<'
p46
aS'<'
p47
aS'>'
p48
aS'None'
p49
aS'v'
p50
aS'v'
p51
aS'>'
p52
aS'<'
p53
aS'<'
p54
aS'^'
p55
aS'v'
p56
aS'^'
p57
aS'<'
p58
aS'None'
p59
aS'v'
p60
aS'^'
p61
aS'v'
p62
aS'<'
p63
aa(lp64
S'>'
p65
aS'>'
p66
aS'^'
p67
aS'>'
p68
aS'>'
p69
aS'^'
p70
aS'None'
p71
aS'>'
p72
aS'>'
p73
aS'v'
p74
aS'v'
p75
aS'<'
p76
aS'>'
p77
aS'<'
p78
aS'>'
p79
aS'None'
p80
aS'^'
p81
aS'^'
p82
aS'<'
p83
aS'v'
p84
aa(lp85
S'>'
p86
aS'>'
p87
aS'<'
p88
aS'<'
p89
aS'v'
p90
aS'>'
p91
aS'<'
p92
aS'None'
p93
aS'>'
p94
aS'<'
p95
aS'>'
p96
aS'v'
p97
aS'v'
p98
aS'>'
p99
aS'v'
p100
aS'None'
p101
aS'<'
p102
aS'<'
p103
aS'<'
p104
aS'^'
p105
aa(lp106
S'>'
p107
aS'v'
p108
aS'<'
p109
aS'>'
p110
aS'v'
p111
aS'^'
p112
aS'>'
p113
aS'>'
p114
aS'None'
p115
aS'>'
p116
aS'v'
p117
aS'<'
p118
aS'>'
p119
aS'None'
p120
aS'None'
p121
aS'None'
p122
aS'None'
p123
aS'None'
p124
aS'None'
p125
aS'v'
p126
aa(lp127
S'v'
p128
aS'>'
p129
aS'^'
p130
aS'v'
p131
aS'>'
p132
aS'^'
p133
aS'>'
p134
aS'>'
p135
aS'>'
p136
aS'None'
p137
aS'<'
p138
aS'v'
p139
aS'<'
p140
aS'>'
p141
aS'v'
p142
aS'^'
p143
aS'>'
p144
aS'<'
p145
aS'^'
p146
aS'<'
p147
aa(lp148
S'>'
p149
aS'<'
p150
aS'>'
p151
aS'<'
p152
aS'<'
p153
aS'<'
p154
aS'>'
p155
aS'^'
p156
aS'<'
p157
aS'None'
p158
aS'v'
p159
aS'None'
p160
aS'>'
p161
aS'<'
p162
aS'<'
p163
aS'<'
p164
aS'<'
p165
aS'<'
p166
aS'v'
p167
aS'v'
p168
aa(lp169
S'<'
p170
aS'^'
p171
aS'<'
p172
aS'^'
p173
aS'>'
p174
aS'>'
p175
aS'v'
p176
aS'>'
p177
aS'v'
p178
aS'<'
p179
aS'None'
p180
aS'^'
p181
aS'<'
p182
aS'None'
p183
aS'<'
p184
aS'>'
p185
aS'<'
p186
aS'>'
p187
aS'<'
p188
aS'v'
p189
aa(lp190
S'^'
p191
aS'None'
p192
aS'v'
p193
aS'^'
p194
aS'>'
p195
aS'^'
p196
aS'<'
p197
aS'>'
p198
aS'^'
p199
aS'v'
p200
aS'None'
p201
aS'^'
p202
aS'^'
p203
aS'>'
p204
aS'None'
p205
aS'v'
p206
aS'^'
p207
aS'v'
p208
aS'<'
p209
aS'>'
p210
aa(lp211
S'v'
p212
aS'<'
p213
aS'<'
p214
aS'<'
p215
aS'<'
p216
aS'^'
p217
aS'<'
p218
aS'<'
p219
aS'<'
p220
aS'None'
p221
aS'<'
p222
aS'<'
p223
aS'v'
p224
aS'<'
p225
aS'>'
p226
aS'None'
p227
aS'v'
p228
aS'<'
p229
aS'v'
p230
aS'>'
p231
aa(lp232
S'v'
p233
aS'<'
p234
aS'v'
p235
aS'^'
p236
aS'<'
p237
aS'None'
p238
aS'^'
p239
aS'v'
p240
aS'None'
p241
aS'<'
p242
aS'<'
p243
aS'>'
p244
aS'v'
p245
aS'^'
p246
aS'^'
p247
aS'v'
p248
aS'None'
p249
aS'>'
p250
aS'^'
p251
aS'v'
p252
aa(lp253
S'v'
p254
aS'v'
p255
aS'<'
p256
aS'<'
p257
aS'>'
p258
aS'v'
p259
aS'^'
p260
aS'None'
p261
aS'<'
p262
aS'^'
p263
aS'^'
p264
aS'<'
p265
aS'^'
p266
aS'^'
p267
aS'^'
p268
aS'>'
p269
aS'v'
p270
aS'None'
p271
aS'None'
p272
aS'>'
p273
aa(lp274
S'v'
p275
aS'<'
p276
aS'v'
p277
aS'<'
p278
aS'<'
p279
aS'^'
p280
aS'^'
p281
aS'None'
p282
aS'v'
p283
aS'<'
p284
aS'v'
p285
aS'^'
p286
aS'None'
p287
aS'^'
p288
aS'<'
p289
aS'>'
p290
aS'v'
p291
aS'>'
p292
aS'<'
p293
aS'<'
p294
aa(lp295
S'v'
p296
aS'v'
p297
aS'v'
p298
aS'<'
p299
aS'<'
p300
aS'<'
p301
aS'<'
p302
aS'>'
p303
aS'v'
p304
aS'<'
p305
aS'v'
p306
aS'None'
p307
aS'>'
p308
aS'None'
p309
aS'<'
p310
aS'None'
p311
aS'v'
p312
aS'>'
p313
aS'>'
p314
aS'>'
p315
aa(lp316
S'v'
p317
aS'<'
p318
aS'<'
p319
aS'<'
p320
aS'^'
p321
aS'^'
p322
aS'<'
p323
aS'>'
p324
aS'>'
p325
aS'v'
p326
aS'None'
p327
aS'>'
p328
aS'<'
p329
aS'v'
p330
aS'None'
p331
aS'<'
p332
aS'^'
p333
aS'>'
p334
aS'>'
p335
aS'^'
p336
aa(lp337
S'v'
p338
aS'^'
p339
aS'^'
p340
aS'<'
p341
aS'v'
p342
aS'<'
p343
aS'<'
p344
aS'<'
p345
aS'^'
p346
aS'None'
p347
aS'^'
p348
aS'>'
p349
aS'^'
p350
aS'>'
p351
aS'v'
p352
aS'^'
p353
aS'^'
p354
aS'^'
p355
aS'^'
p356
aS'v'
p357
aa(lp358
S'v'
p359
aS'<'
p360
aS'v'
p361
aS'v'
p362
aS'<'
p363
aS'^'
p364
aS'<'
p365
aS'>'
p366
aS'^'
p367
aS'v'
p368
aS'None'
p369
aS'^'
p370
aS'>'
p371
aS'v'
p372
aS'^'
p373
aS'v'
p374
aS'>'
p375
aS'<'
p376
aS'^'
p377
aS'>'
p378
aa(lp379
S'<'
p380
aS'<'
p381
aS'v'
p382
aS'<'
p383
aS'<'
p384
aS'^'
p385
aS'^'
p386
aS'>'
p387
aS'^'
p388
aS'^'
p389
aS'v'
p390
aS'None'
p391
aS'None'
p392
aS'<'
p393
aS'None'
p394
aS'None'
p395
aS'None'
p396
aS'None'
p397
aS'None'
p398
aS'None'
p399
aa(lp400
S'^'
p401
aS'^'
p402
aS'<'
p403
aS'<'
p404
aS'<'
p405
aS'^'
p406
aS'>'
p407
aS'>'
p408
aS'>'
p409
aS'v'
p410
aS'^'
p411
aS'>'
p412
aS'<'
p413
aS'>'
p414
aS'^'
p415
aS'<'
p416
aS'>'
p417
aS'v'
p418
aS'^'
p419
aS'>'
p420
aa.