(lp0
(lp1
S'<'
p2
aS'>'
p3
aS'<'
p4
aS'<'
p5
aS'v'
p6
aS'^'
p7
aS'^'
p8
aS'<'
p9
aS'^'
p10
aS'v'
p11
aS'<'
p12
aS'v'
p13
aS'>'
p14
aS'>'
p15
aS'^'
p16
aS'^'
p17
aS'>'
p18
aS'^'
p19
aS'v'
p20
aS'v'
p21
aa(lp22
S'^'
p23
aS'v'
p24
aS'^'
p25
aS'<'
p26
aS'None'
p27
aS'<'
p28
aS'>'
p29
aS'^'
p30
aS'>'
p31
aS'<'
p32
aS'^'
p33
aS'^'
p34
aS'>'
p35
aS'^'
p36
aS'>'
p37
aS'^'
p38
aS'v'
p39
aS'v'
p40
aS'v'
p41
aS'<'
p42
aa(lp43
S'>'
p44
aS'v'
p45
aS'<'
p46
aS'<'
p47
aS'^'
p48
aS'None'
p49
aS'>'
p50
aS'v'
p51
aS'^'
p52
aS'^'
p53
aS'v'
p54
aS'^'
p55
aS'<'
p56
aS'>'
p57
aS'^'
p58
aS'None'
p59
aS'v'
p60
aS'<'
p61
aS'v'
p62
aS'>'
p63
aa(lp64
S'>'
p65
aS'<'
p66
aS'^'
p67
aS'>'
p68
aS'>'
p69
aS'^'
p70
aS'None'
p71
aS'<'
p72
aS'<'
p73
aS'>'
p74
aS'^'
p75
aS'v'
p76
aS'v'
p77
aS'^'
p78
aS'v'
p79
aS'None'
p80
aS'v'
p81
aS'<'
p82
aS'v'
p83
aS'^'
p84
aa(lp85
S'>'
p86
aS'v'
p87
aS'^'
p88
aS'<'
p89
aS'^'
p90
aS'v'
p91
aS'v'
p92
aS'None'
p93
aS'<'
p94
aS'<'
p95
aS'v'
p96
aS'<'
p97
aS'^'
p98
aS'>'
p99
aS'^'
p100
aS'None'
p101
aS'<'
p102
aS'^'
p103
aS'>'
p104
aS'^'
p105
aa(lp106
S'^'
p107
aS'>'
p108
aS'^'
p109
aS'<'
p110
aS'v'
p111
aS'^'
p112
aS'<'
p113
aS'<'
p114
aS'None'
p115
aS'>'
p116
aS'<'
p117
aS'^'
p118
aS'^'
p119
aS'None'
p120
aS'None'
p121
aS'None'
p122
aS'None'
p123
aS'None'
p124
aS'None'
p125
aS'v'
p126
aa(lp127
S'v'
p128
aS'v'
p129
aS'^'
p130
aS'v'
p131
aS'<'
p132
aS'^'
p133
aS'^'
p134
aS'^'
p135
aS'v'
p136
aS'None'
p137
aS'<'
p138
aS'^'
p139
aS'v'
p140
aS'^'
p141
aS'^'
p142
aS'^'
p143
aS'v'
p144
aS'<'
p145
aS'^'
p146
aS'^'
p147
aa(lp148
S'^'
p149
aS'^'
p150
aS'^'
p151
aS'<'
p152
aS'^'
p153
aS'v'
p154
aS'>'
p155
aS'>'
p156
aS'v'
p157
aS'None'
p158
aS'^'
p159
aS'None'
p160
aS'^'
p161
aS'<'
p162
aS'v'
p163
aS'^'
p164
aS'v'
p165
aS'>'
p166
aS'^'
p167
aS'<'
p168
aa(lp169
S'^'
p170
aS'<'
p171
aS'<'
p172
aS'^'
p173
aS'>'
p174
aS'v'
p175
aS'v'
p176
aS'^'
p177
aS'^'
p178
aS'<'
p179
aS'None'
p180
aS'>'
p181
aS'v'
p182
aS'None'
p183
aS'v'
p184
aS'^'
p185
aS'>'
p186
aS'v'
p187
aS'v'
p188
aS'v'
p189
aa(lp190
S'>'
p191
aS'None'
p192
aS'v'
p193
aS'^'
p194
aS'^'
p195
aS'v'
p196
aS'<'
p197
aS'>'
p198
aS'^'
p199
aS'<'
p200
aS'None'
p201
aS'>'
p202
aS'v'
p203
aS'v'
p204
aS'None'
p205
aS'^'
p206
aS'>'
p207
aS'>'
p208
aS'<'
p209
aS'>'
p210
aa(lp211
S'^'
p212
aS'^'
p213
aS'v'
p214
aS'<'
p215
aS'<'
p216
aS'^'
p217
aS'>'
p218
aS'<'
p219
aS'^'
p220
aS'None'
p221
aS'v'
p222
aS'^'
p223
aS'^'
p224
aS'<'
p225
aS'^'
p226
aS'None'
p227
aS'v'
p228
aS'^'
p229
aS'<'
p230
aS'<'
p231
aa(lp232
S'v'
p233
aS'v'
p234
aS'<'
p235
aS'v'
p236
aS'v'
p237
aS'None'
p238
aS'<'
p239
aS'v'
p240
aS'None'
p241
aS'v'
p242
aS'v'
p243
aS'v'
p244
aS'^'
p245
aS'<'
p246
aS'v'
p247
aS'>'
p248
aS'None'
p249
aS'^'
p250
aS'^'
p251
aS'<'
p252
aa(lp253
S'<'
p254
aS'v'
p255
aS'<'
p256
aS'v'
p257
aS'>'
p258
aS'>'
p259
aS'>'
p260
aS'None'
p261
aS'^'
p262
aS'^'
p263
aS'^'
p264
aS'v'
p265
aS'<'
p266
aS'>'
p267
aS'>'
p268
aS'>'
p269
aS'>'
p270
aS'None'
p271
aS'None'
p272
aS'^'
p273
aa(lp274
S'v'
p275
aS'<'
p276
aS'<'
p277
aS'<'
p278
aS'v'
p279
aS'<'
p280
aS'<'
p281
aS'None'
p282
aS'>'
p283
aS'<'
p284
aS'>'
p285
aS'<'
p286
aS'None'
p287
aS'<'
p288
aS'>'
p289
aS'v'
p290
aS'>'
p291
aS'>'
p292
aS'<'
p293
aS'^'
p294
aa(lp295
S'v'
p296
aS'v'
p297
aS'v'
p298
aS'v'
p299
aS'<'
p300
aS'<'
p301
aS'<'
p302
aS'>'
p303
aS'^'
p304
aS'v'
p305
aS'v'
p306
aS'None'
p307
aS'^'
p308
aS'None'
p309
aS'<'
p310
aS'None'
p311
aS'v'
p312
aS'>'
p313
aS'>'
p314
aS'<'
p315
aa(lp316
S'<'
p317
aS'<'
p318
aS'<'
p319
aS'v'
p320
aS'^'
p321
aS'^'
p322
aS'^'
p323
aS'>'
p324
aS'>'
p325
aS'^'
p326
aS'None'
p327
aS'<'
p328
aS'>'
p329
aS'^'
p330
aS'None'
p331
aS'<'
p332
aS'<'
p333
aS'>'
p334
aS'v'
p335
aS'^'
p336
aa(lp337
S'^'
p338
aS'<'
p339
aS'<'
p340
aS'<'
p341
aS'v'
p342
aS'^'
p343
aS'<'
p344
aS'>'
p345
aS'>'
p346
aS'None'
p347
aS'<'
p348
aS'^'
p349
aS'>'
p350
aS'v'
p351
aS'v'
p352
aS'^'
p353
aS'>'
p354
aS'v'
p355
aS'^'
p356
aS'^'
p357
aa(lp358
S'^'
p359
aS'^'
p360
aS'^'
p361
aS'^'
p362
aS'<'
p363
aS'^'
p364
aS'<'
p365
aS'^'
p366
aS'>'
p367
aS'>'
p368
aS'None'
p369
aS'<'
p370
aS'>'
p371
aS'^'
p372
aS'<'
p373
aS'v'
p374
aS'>'
p375
aS'>'
p376
aS'v'
p377
aS'>'
p378
aa(lp379
S'^'
p380
aS'<'
p381
aS'^'
p382
aS'^'
p383
aS'<'
p384
aS'<'
p385
aS'<'
p386
aS'^'
p387
aS'>'
p388
aS'^'
p389
aS'v'
p390
aS'None'
p391
aS'None'
p392
aS'<'
p393
aS'None'
p394
aS'None'
p395
aS'None'
p396
aS'None'
p397
aS'None'
p398
aS'None'
p399
aa(lp400
S'v'
p401
aS'^'
p402
aS'^'
p403
aS'<'
p404
aS'<'
p405
aS'^'
p406
aS'v'
p407
aS'>'
p408
aS'v'
p409
aS'>'
p410
aS'>'
p411
aS'<'
p412
aS'^'
p413
aS'v'
p414
aS'<'
p415
aS'>'
p416
aS'>'
p417
aS'v'
p418
aS'<'
p419
aS'^'
p420
aa.