(lp0
(lp1
S'>'
p2
aS'v'
p3
aS'<'
p4
aS'>'
p5
aS'>'
p6
aS'<'
p7
aS'>'
p8
aS'^'
p9
aS'v'
p10
aS'^'
p11
aS'^'
p12
aS'v'
p13
aS'<'
p14
aS'v'
p15
aS'^'
p16
aS'v'
p17
aS'>'
p18
aS'>'
p19
aS'^'
p20
aS'v'
p21
aa(lp22
S'^'
p23
aS'>'
p24
aS'v'
p25
aS'<'
p26
aS'None'
p27
aS'^'
p28
aS'>'
p29
aS'v'
p30
aS'<'
p31
aS'>'
p32
aS'v'
p33
aS'<'
p34
aS'v'
p35
aS'^'
p36
aS'v'
p37
aS'v'
p38
aS'v'
p39
aS'v'
p40
aS'<'
p41
aS'^'
p42
aa(lp43
S'<'
p44
aS'<'
p45
aS'v'
p46
aS'^'
p47
aS'v'
p48
aS'None'
p49
aS'v'
p50
aS'>'
p51
aS'^'
p52
aS'v'
p53
aS'v'
p54
aS'>'
p55
aS'v'
p56
aS'^'
p57
aS'v'
p58
aS'None'
p59
aS'>'
p60
aS'v'
p61
aS'v'
p62
aS'^'
p63
aa(lp64
S'v'
p65
aS'^'
p66
aS'<'
p67
aS'<'
p68
aS'v'
p69
aS'^'
p70
aS'None'
p71
aS'>'
p72
aS'v'
p73
aS'<'
p74
aS'v'
p75
aS'>'
p76
aS'<'
p77
aS'<'
p78
aS'v'
p79
aS'None'
p80
aS'<'
p81
aS'>'
p82
aS'>'
p83
aS'^'
p84
aa(lp85
S'>'
p86
aS'<'
p87
aS'<'
p88
aS'<'
p89
aS'v'
p90
aS'v'
p91
aS'<'
p92
aS'None'
p93
aS'>'
p94
aS'v'
p95
aS'<'
p96
aS'^'
p97
aS'>'
p98
aS'v'
p99
aS'v'
p100
aS'None'
p101
aS'<'
p102
aS'<'
p103
aS'<'
p104
aS'<'
p105
aa(lp106
S'^'
p107
aS'^'
p108
aS'<'
p109
aS'>'
p110
aS'^'
p111
aS'^'
p112
aS'<'
p113
aS'v'
p114
aS'None'
p115
aS'<'
p116
aS'^'
p117
aS'v'
p118
aS'v'
p119
aS'None'
p120
aS'None'
p121
aS'None'
p122
aS'None'
p123
aS'None'
p124
aS'None'
p125
aS'<'
p126
aa(lp127
S'v'
p128
aS'^'
p129
aS'<'
p130
aS'<'
p131
aS'^'
p132
aS'<'
p133
aS'>'
p134
aS'^'
p135
aS'^'
p136
aS'None'
p137
aS'>'
p138
aS'>'
p139
aS'^'
p140
aS'>'
p141
aS'>'
p142
aS'<'
p143
aS'<'
p144
aS'^'
p145
aS'^'
p146
aS'>'
p147
aa(lp148
S'<'
p149
aS'v'
p150
aS'^'
p151
aS'<'
p152
aS'^'
p153
aS'^'
p154
aS'^'
p155
aS'v'
p156
aS'^'
p157
aS'None'
p158
aS'v'
p159
aS'None'
p160
aS'<'
p161
aS'^'
p162
aS'>'
p163
aS'>'
p164
aS'>'
p165
aS'v'
p166
aS'<'
p167
aS'>'
p168
aa(lp169
S'^'
p170
aS'<'
p171
aS'^'
p172
aS'^'
p173
aS'>'
p174
aS'>'
p175
aS'v'
p176
aS'^'
p177
aS'>'
p178
aS'<'
p179
aS'None'
p180
aS'>'
p181
aS'<'
p182
aS'None'
p183
aS'v'
p184
aS'v'
p185
aS'^'
p186
aS'v'
p187
aS'<'
p188
aS'^'
p189
aa(lp190
S'^'
p191
aS'None'
p192
aS'^'
p193
aS'v'
p194
aS'v'
p195
aS'<'
p196
aS'v'
p197
aS'>'
p198
aS'^'
p199
aS'>'
p200
aS'None'
p201
aS'v'
p202
aS'>'
p203
aS'v'
p204
aS'None'
p205
aS'v'
p206
aS'^'
p207
aS'^'
p208
aS'>'
p209
aS'<'
p210
aa(lp211
S'^'
p212
aS'<'
p213
aS'<'
p214
aS'<'
p215
aS'<'
p216
aS'v'
p217
aS'v'
p218
aS'<'
p219
aS'^'
p220
aS'None'
p221
aS'v'
p222
aS'>'
p223
aS'<'
p224
aS'^'
p225
aS'v'
p226
aS'None'
p227
aS'^'
p228
aS'^'
p229
aS'<'
p230
aS'^'
p231
aa(lp232
S'^'
p233
aS'^'
p234
aS'v'
p235
aS'<'
p236
aS'^'
p237
aS'None'
p238
aS'<'
p239
aS'v'
p240
aS'None'
p241
aS'>'
p242
aS'<'
p243
aS'<'
p244
aS'v'
p245
aS'<'
p246
aS'v'
p247
aS'<'
p248
aS'None'
p249
aS'>'
p250
aS'v'
p251
aS'<'
p252
aa(lp253
S'^'
p254
aS'>'
p255
aS'^'
p256
aS'v'
p257
aS'v'
p258
aS'^'
p259
aS'<'
p260
aS'None'
p261
aS'<'
p262
aS'>'
p263
aS'>'
p264
aS'>'
p265
aS'>'
p266
aS'^'
p267
aS'>'
p268
aS'v'
p269
aS'^'
p270
aS'None'
p271
aS'None'
p272
aS'^'
p273
aa(lp274
S'v'
p275
aS'^'
p276
aS'<'
p277
aS'^'
p278
aS'^'
p279
aS'^'
p280
aS'>'
p281
aS'None'
p282
aS'>'
p283
aS'>'
p284
aS'^'
p285
aS'<'
p286
aS'None'
p287
aS'<'
p288
aS'<'
p289
aS'^'
p290
aS'<'
p291
aS'>'
p292
aS'^'
p293
aS'>'
p294
aa(lp295
S'^'
p296
aS'>'
p297
aS'>'
p298
aS'<'
p299
aS'v'
p300
aS'<'
p301
aS'<'
p302
aS'>'
p303
aS'^'
p304
aS'^'
p305
aS'<'
p306
aS'None'
p307
aS'v'
p308
aS'None'
p309
aS'v'
p310
aS'None'
p311
aS'^'
p312
aS'>'
p313
aS'^'
p314
aS'^'
p315
aa(lp316
S'v'
p317
aS'v'
p318
aS'^'
p319
aS'<'
p320
aS'v'
p321
aS'<'
p322
aS'<'
p323
aS'<'
p324
aS'v'
p325
aS'^'
p326
aS'None'
p327
aS'<'
p328
aS'>'
p329
aS'^'
p330
aS'None'
p331
aS'v'
p332
aS'>'
p333
aS'v'
p334
aS'>'
p335
aS'v'
p336
aa(lp337
S'^'
p338
aS'<'
p339
aS'v'
p340
aS'v'
p341
aS'v'
p342
aS'^'
p343
aS'^'
p344
aS'>'
p345
aS'^'
p346
aS'None'
p347
aS'v'
p348
aS'>'
p349
aS'<'
p350
aS'>'
p351
aS'^'
p352
aS'v'
p353
aS'^'
p354
aS'v'
p355
aS'^'
p356
aS'<'
p357
aa(lp358
S'>'
p359
aS'>'
p360
aS'v'
p361
aS'v'
p362
aS'v'
p363
aS'^'
p364
aS'>'
p365
aS'^'
p366
aS'v'
p367
aS'v'
p368
aS'None'
p369
aS'v'
p370
aS'^'
p371
aS'v'
p372
aS'^'
p373
aS'^'
p374
aS'>'
p375
aS'^'
p376
aS'v'
p377
aS'<'
p378
aa(lp379
S'>'
p380
aS'^'
p381
aS'^'
p382
aS'>'
p383
aS'<'
p384
aS'<'
p385
aS'v'
p386
aS'>'
p387
aS'^'
p388
aS'>'
p389
aS'<'
p390
aS'None'
p391
aS'None'
p392
aS'v'
p393
aS'None'
p394
aS'None'
p395
aS'None'
p396
aS'None'
p397
aS'None'
p398
aS'None'
p399
aa(lp400
S'>'
p401
aS'^'
p402
aS'^'
p403
aS'<'
p404
aS'^'
p405
aS'^'
p406
aS'<'
p407
aS'^'
p408
aS'>'
p409
aS'>'
p410
aS'<'
p411
aS'v'
p412
aS'<'
p413
aS'<'
p414
aS'v'
p415
aS'>'
p416
aS'^'
p417
aS'>'
p418
aS'>'
p419
aS'^'
p420
aa.